; Function Attrs: nofree nosync nounwind memory(readwrite, inaccessiblemem: none) uwtable
define void @Gia_ManHighlight_rec(ptr noundef readonly captures(none) %0, i32 noundef %1) local_unnamed_addr #0 {
  %3 = getelementptr i8, ptr %0, i64 176
  %4 = getelementptr i8, ptr %0, i64 616
  %.val28 = load i32, ptr %3, align 8, !tbaa !3
  %.val1529 = load ptr, ptr %4, align 8, !tbaa !28
  %5 = sext i32 %1 to i64
  %6 = getelementptr inbounds i32, ptr %.val1529, i64 %5
  %7 = load i32, ptr %6, align 4, !tbaa !29
  %.not30 = icmp eq i32 %7, %.val28
  br i1 %.not30, label %._crit_edge, label %.lr.ph

.lr.ph:                                           ; preds = %2
  %8 = getelementptr i8, ptr %0, i64 32
  br label %9

9:                                                ; preds = %.lr.ph, %tailrecurse
  %10 = phi ptr [ %6, %.lr.ph ], [ %28, %tailrecurse ]
  %11 = phi i64 [ %5, %.lr.ph ], [ %27, %tailrecurse ]
  %.val32 = phi i32 [ %.val28, %.lr.ph ], [ %.val, %tailrecurse ]
  %.tr2731 = phi i32 [ %1, %.lr.ph ], [ %26, %tailrecurse ]
  store i32 %.val32, ptr %10, align 4, !tbaa !29
  %.val18 = load ptr, ptr %8, align 8, !tbaa !30
  %12 = getelementptr inbounds %struct.Gia_Obj_t_, ptr %.val18, i64 %11
  %.val19 = load i64, ptr %12, align 4
  %13 = and i64 %.val19, 2147483648
  %.not.i = icmp ne i64 %13, 0
  %14 = and i64 %.val19, 536870911
  %15 = icmp eq i64 %14, 536870911
  %narrow.i.not = or i1 %.not.i, %15
  br i1 %narrow.i.not, label %20, label %16

16:                                               ; preds = %9
  %17 = trunc i64 %.val19 to i32
  %18 = and i32 %17, 536870911
  %19 = sub nsw i32 %.tr2731, %18
  tail call void @Gia_ManHighlight_rec(ptr noundef nonnull %0, i32 noundef %19)
  %.val20.pre = load i64, ptr %12, align 4
  %.pre = and i64 %.val20.pre, 536870911
  br label %20

20:                                               ; preds = %16, %9
  %.pre-phi = phi i64 [ %.pre, %16 ], [ %14, %9 ]
  %.val20 = phi i64 [ %.val20.pre, %16 ], [ %.val19, %9 ]
  %21 = and i64 %.val20, 2147483648
  %.not.i23 = icmp ne i64 %21, 0
  %22 = icmp eq i64 %.pre-phi, 536870911
  %narrow.i24.not = or i1 %.not.i23, %22
  br i1 %narrow.i24.not, label %._crit_edge, label %tailrecurse

tailrecurse:                                      ; preds = %20
  %23 = lshr i64 %.val20, 32
  %24 = trunc nuw i64 %23 to i32
  %25 = and i32 %24, 536870911
  %26 = sub nsw i32 %.tr2731, %25
  %.val = load i32, ptr %3, align 8, !tbaa !3
  %.val15 = load ptr, ptr %4, align 8, !tbaa !28
  %27 = sext i32 %26 to i64
  %28 = getelementptr inbounds i32, ptr %.val15, i64 %27
  %29 = load i32, ptr %28, align 4, !tbaa !29
  %.not = icmp eq i32 %29, %.val
  br i1 %.not, label %._crit_edge, label %9

._crit_edge:                                      ; preds = %tailrecurse, %20, %2
  ret void
}